((lp0
(I100
I100
tp1
a(I200
I100
tp2
a(I300
I100
tp3
a(I400
I100
tp4
a(I500
I100
tp5
a(I600
I100
tp6
a(I700
I100
tp7
a(I800
I100
tp8
a(I900
I100
tp9
a(I100
I200
tp10
a(I200
I200
tp11
a(I300
I200
tp12
a(I400
I200
tp13
a(I500
I200
tp14
a(I600
I200
tp15
a(I700
I200
tp16
a(I800
I200
tp17
a(I900
I200
tp18
a(lp19
(((I100
I100
tp20
(I200
I100
tp21
tp22
(I255
I255
I255
tp23
I8967
tp24
a(((I200
I100
tp25
(I300
I100
tp26
tp27
g23
I8969
tp28
a(((I300
I100
tp29
(I400
I100
tp30
tp31
g23
I8972
tp32
a(((I400
I100
tp33
(I500
I100
tp34
tp35
g23
I8975
tp36
a(((I500
I100
tp37
(I600
I100
tp38
tp39
g23
I8978
tp40
a(((I600
I100
tp41
(I700
I100
tp42
tp43
g23
I8981
tp44
a(((I700
I100
tp45
(I800
I100
tp46
tp47
g23
I8984
tp48
a(((I800
I100
tp49
(I900
I100
tp50
tp51
g23
I8987
tp52
a(((I100
I200
tp53
(I200
I200
tp54
tp55
g23
I8990
tp56
a(((I200
I200
tp57
(I300
I200
tp58
tp59
g23
I8993
tp60
a(((I300
I200
tp61
(I400
I200
tp62
tp63
g23
I8997
tp64
a(((I400
I200
tp65
(I500
I200
tp66
tp67
g23
I8999
tp68
a(((I500
I200
tp69
(I600
I200
tp70
tp71
g23
I9002
tp72
a(((I600
I200
tp73
(I700
I200
tp74
tp75
g23
I9005
tp76
a(((I700
I200
tp77
(I800
I200
tp78
tp79
g23
I9008
tp80
a(((I800
I200
tp81
(I900
I200
tp82
tp83
g23
I9011
tp84
a(((I500
I100
tp85
(I500
I200
tp86
tp87
g23
I9014
tp88
atp89
.